; Function Attrs: mustprogress uwtable
define dso_local range(i8 0, 2) i8 @_ZN4absl19str_format_internal17FormatConvertImplERKNSt7__cxx1112basic_stringIcSt11char_traitsIcESaIcEEENS0_24FormatConversionSpecImplEPNS0_14FormatSinkImplE(ptr noundef nonnull readonly align 8 captures(none) dereferenceable(32) %0, i64 %1, i32 %2, ptr noundef %3) local_unnamed_addr #0 personality ptr @__gxx_personality_v0 {
  %5 = load ptr, ptr %0, align 8, !tbaa !50
  %6 = getelementptr inbounds nuw i8, ptr %0, i64 8
  %7 = load i64, ptr %6, align 8, !tbaa !53
  %.sroa.1.0.extract.shift.i = lshr i64 %1, 8
  %.sroa.1.0.extract.trunc.i = trunc i64 %.sroa.1.0.extract.shift.i to i8
  %8 = icmp eq i8 %.sroa.1.0.extract.trunc.i, 0
  br i1 %8, label %9, label %33

9:                                                ; preds = %4
  %10 = icmp eq i64 %7, 0
  br i1 %10, label %_ZN4absl19str_format_internal12_GLOBAL__N_116ConvertStringArgESt17basic_string_viewIcSt11char_traitsIcEENS0_24FormatConversionSpecImplEPNS0_14FormatSinkImplE.exit, label %11

11:                                               ; preds = %9
  %12 = getelementptr inbounds nuw i8, ptr %3, i64 16
  %13 = load i64, ptr %12, align 8, !tbaa !16
  %14 = add i64 %13, %7
  store i64 %14, ptr %12, align 8, !tbaa !16
  %15 = getelementptr inbounds nuw i8, ptr %3, i64 1056
  %16 = getelementptr inbounds nuw i8, ptr %3, i64 24
  %17 = load ptr, ptr %16, align 8, !tbaa !19
  %18 = ptrtoint ptr %15 to i64
  %19 = ptrtoint ptr %17 to i64
  %20 = sub i64 %18, %19
  %.not.i.i = icmp ult i64 %7, %20
  br i1 %.not.i.i, label %30, label %21

21:                                               ; preds = %11
  %22 = getelementptr inbounds nuw i8, ptr %3, i64 32
  %23 = ptrtoint ptr %22 to i64
  %24 = sub i64 %19, %23
  %25 = getelementptr inbounds nuw i8, ptr %3, i64 8
  %26 = load ptr, ptr %25, align 8, !tbaa !20
  %27 = load ptr, ptr %3, align 8, !tbaa !21
  tail call void %26(ptr noundef %27, i64 %24, ptr nonnull %22)
  store ptr %22, ptr %16, align 8, !tbaa !19
  %28 = load ptr, ptr %25, align 8, !tbaa !20
  %29 = load ptr, ptr %3, align 8, !tbaa !21
  tail call void %28(ptr noundef %29, i64 %7, ptr %5)
  br label %_ZN4absl19str_format_internal12_GLOBAL__N_116ConvertStringArgESt17basic_string_viewIcSt11char_traitsIcEENS0_24FormatConversionSpecImplEPNS0_14FormatSinkImplE.exit

30:                                               ; preds = %11
  tail call void @llvm.memcpy.p0.p0.i64(ptr align 1 %17, ptr align 1 %5, i64 %7, i1 false)
  %31 = load ptr, ptr %16, align 8, !tbaa !19
  %32 = getelementptr inbounds nuw i8, ptr %31, i64 %7
  store ptr %32, ptr %16, align 8, !tbaa !19
  br label %_ZN4absl19str_format_internal12_GLOBAL__N_116ConvertStringArgESt17basic_string_viewIcSt11char_traitsIcEENS0_24FormatConversionSpecImplEPNS0_14FormatSinkImplE.exit

33:                                               ; preds = %4
  %.sroa.310.0.extract.shift.i = lshr i64 %1, 32
  %.sroa.310.0.extract.trunc.i = trunc nuw i64 %.sroa.310.0.extract.shift.i to i32
  %34 = and i8 %.sroa.1.0.extract.trunc.i, 1
  %35 = icmp ne i8 %34, 0
  %36 = tail call noundef zeroext i1 @_ZN4absl19str_format_internal14FormatSinkImpl15PutPaddedStringESt17basic_string_viewIcSt11char_traitsIcEEiib(ptr noundef nonnull align 8 dereferenceable(1056) %3, i64 %7, ptr %5, i32 noundef %.sroa.310.0.extract.trunc.i, i32 noundef %2, i1 noundef zeroext %35)
  %37 = zext i1 %36 to i8
  br label %_ZN4absl19str_format_internal12_GLOBAL__N_116ConvertStringArgESt17basic_string_viewIcSt11char_traitsIcEENS0_24FormatConversionSpecImplEPNS0_14FormatSinkImplE.exit

_ZN4absl19str_format_internal12_GLOBAL__N_116ConvertStringArgESt17basic_string_viewIcSt11char_traitsIcEENS0_24FormatConversionSpecImplEPNS0_14FormatSinkImplE.exit: ; preds = %9, %21, %30, %33
  %.0.i = phi i8 [ %37, %33 ], [ 1, %9 ], [ 1, %21 ], [ 1, %30 ]
  ret i8 %.0.i
}